target datalayout = "e-m:e-p270:32:32-p271:32:32-p272:64:64-i64:64-i128:128-f80:128-n8:16:32:64-S128"
target triple = "x86_64-pc-linux-gnu"

%struct.anon = type { i32, [0 x i8] }
%struct.ArrayType = type { i32, i32, i32, i32 }
%struct.AclItem = type { i32, i32, i64 }

@.str.1 = private unnamed_addr constant [6 x i8] c"acl.c\00", align 1
@.str.37 = private unnamed_addr constant [17 x i8] c"invalid size: %d\00", align 1
@__func__.allocacl = private unnamed_addr constant [9 x i8] c"allocacl\00", align 1

; Function Attrs: nounwind uwtable
define internal ptr @allocacl(i32 noundef %0) #0 {
  %2 = alloca i32, align 4
  %3 = alloca ptr, align 8
  %4 = alloca i64, align 8
  store i32 %0, ptr %2, align 4
  call void @llvm.lifetime.start.p0(i64 8, ptr %3) #9
  call void @llvm.lifetime.start.p0(i64 8, ptr %4) #9
  %5 = load i32, ptr %2, align 4
  %6 = icmp slt i32 %5, 0
  br i1 %6, label %7, label %19

7:                                                ; preds = %1
  br label %8

8:                                                ; preds = %7
  br i1 true, label %9, label %11

9:                                                ; preds = %8
  %10 = call zeroext i1 @errstart_cold(i32 noundef 21, ptr noundef null) #10
  br i1 %10, label %13, label %16

11:                                               ; preds = %8
  %12 = call zeroext i1 @errstart(i32 noundef 21, ptr noundef null)
  br i1 %12, label %13, label %16

13:                                               ; preds = %11, %9
  %14 = load i32, ptr %2, align 4
  %15 = call i32 (ptr, ...) @errmsg_internal(ptr noundef @.str.37, i32 noundef %14)
  call void @errfinish(ptr noundef @.str.1, i32 noundef 416, ptr noundef @__func__.allocacl)
  br label %16

16:                                               ; preds = %13, %11, %9
  unreachable

17:                                               ; No predecessors!
  br label %18

18:                                               ; preds = %17
  br label %19

19:                                               ; preds = %18, %1
  %20 = load i32, ptr %2, align 4
  %21 = sext i32 %20 to i64
  %22 = mul i64 %21, 16
  %23 = add i64 24, %22
  store i64 %23, ptr %4, align 8
  %24 = load i64, ptr %4, align 8
  %25 = call ptr @palloc0(i64 noundef %24)
  store ptr %25, ptr %3, align 8
  %26 = load i64, ptr %4, align 8
  %27 = trunc i64 %26 to i32
  %28 = shl i32 %27, 2
  %29 = load ptr, ptr %3, align 8
  %30 = getelementptr inbounds nuw %struct.anon, ptr %29, i32 0, i32 0
  store i32 %28, ptr %30, align 4
  %31 = load ptr, ptr %3, align 8
  %32 = getelementptr inbounds nuw %struct.ArrayType, ptr %31, i32 0, i32 1
  store i32 1, ptr %32, align 4
  %33 = load ptr, ptr %3, align 8
  %34 = getelementptr inbounds nuw %struct.ArrayType, ptr %33, i32 0, i32 2
  store i32 0, ptr %34, align 4
  %35 = load ptr, ptr %3, align 8
  %36 = getelementptr inbounds nuw %struct.ArrayType, ptr %35, i32 0, i32 3
  store i32 1033, ptr %36, align 4
  %37 = load ptr, ptr %3, align 8
  %38 = getelementptr inbounds nuw i8, ptr %37, i64 16
  %39 = load ptr, ptr %3, align 8
  %40 = getelementptr inbounds nuw %struct.ArrayType, ptr %39, i32 0, i32 1
  %41 = load i32, ptr %40, align 4
  %42 = sext i32 %41 to i64
  %43 = mul i64 4, %42
  %44 = getelementptr inbounds nuw i8, ptr %38, i64 %43
  %45 = getelementptr inbounds i32, ptr %44, i64 0
  store i32 1, ptr %45, align 4
  %46 = load i32, ptr %2, align 4
  %47 = load ptr, ptr %3, align 8
  %48 = getelementptr inbounds nuw i8, ptr %47, i64 16
  %49 = getelementptr inbounds i32, ptr %48, i64 0
  store i32 %46, ptr %49, align 4
  %50 = load ptr, ptr %3, align 8
  call void @llvm.lifetime.end.p0(i64 8, ptr %4) #9
  call void @llvm.lifetime.end.p0(i64 8, ptr %3) #9
  ret ptr %50
}

; Function Attrs: nounwind uwtable
define dso_local ptr @aclcopy(ptr noundef %0) #0 {
  %2 = alloca ptr, align 8
  %3 = alloca ptr, align 8
  store ptr %0, ptr %2, align 8
  call void @llvm.lifetime.start.p0(i64 8, ptr %3) #9
  %4 = load ptr, ptr %2, align 8
  %5 = getelementptr inbounds nuw i8, ptr %4, i64 16
  %6 = getelementptr inbounds i32, ptr %5, i64 0
  %7 = load i32, ptr %6, align 4
  %8 = call ptr @allocacl(i32 noundef %7)
  store ptr %8, ptr %3, align 8
  %9 = load ptr, ptr %3, align 8
  %10 = load ptr, ptr %3, align 8
  %11 = getelementptr inbounds nuw %struct.ArrayType, ptr %10, i32 0, i32 2
  %12 = load i32, ptr %11, align 4
  %13 = icmp ne i32 %12, 0
  br i1 %13, label %14, label %19

14:                                               ; preds = %1
  %15 = load ptr, ptr %3, align 8
  %16 = getelementptr inbounds nuw %struct.ArrayType, ptr %15, i32 0, i32 2
  %17 = load i32, ptr %16, align 4
  %18 = sext i32 %17 to i64
  br label %28

19:                                               ; preds = %1
  %20 = load ptr, ptr %3, align 8
  %21 = getelementptr inbounds nuw %struct.ArrayType, ptr %20, i32 0, i32 1
  %22 = load i32, ptr %21, align 4
  %23 = sext i32 %22 to i64
  %24 = mul i64 8, %23
  %25 = add i64 16, %24
  %26 = add i64 %25, 7
  %27 = and i64 %26, -8
  br label %28

28:                                               ; preds = %19, %14
  %29 = phi i64 [ %18, %14 ], [ %27, %19 ]
  %30 = getelementptr inbounds nuw i8, ptr %9, i64 %29
  %31 = load ptr, ptr %2, align 8
  %32 = load ptr, ptr %2, align 8
  %33 = getelementptr inbounds nuw %struct.ArrayType, ptr %32, i32 0, i32 2
  %34 = load i32, ptr %33, align 4
  %35 = icmp ne i32 %34, 0
  br i1 %35, label %36, label %41

36:                                               ; preds = %28
  %37 = load ptr, ptr %2, align 8
  %38 = getelementptr inbounds nuw %struct.ArrayType, ptr %37, i32 0, i32 2
  %39 = load i32, ptr %38, align 4
  %40 = sext i32 %39 to i64
  br label %50

41:                                               ; preds = %28
  %42 = load ptr, ptr %2, align 8
  %43 = getelementptr inbounds nuw %struct.ArrayType, ptr %42, i32 0, i32 1
  %44 = load i32, ptr %43, align 4
  %45 = sext i32 %44 to i64
  %46 = mul i64 8, %45
  %47 = add i64 16, %46
  %48 = add i64 %47, 7
  %49 = and i64 %48, -8
  br label %50

50:                                               ; preds = %41, %36
  %51 = phi i64 [ %40, %36 ], [ %49, %41 ]
  %52 = getelementptr inbounds nuw i8, ptr %31, i64 %51
  %53 = load ptr, ptr %2, align 8
  %54 = getelementptr inbounds nuw i8, ptr %53, i64 16
  %55 = getelementptr inbounds i32, ptr %54, i64 0
  %56 = load i32, ptr %55, align 4
  %57 = sext i32 %56 to i64
  %58 = mul i64 %57, 16
  call void @llvm.memcpy.p0.p0.i64(ptr align 8 %30, ptr align 8 %52, i64 %58, i1 false)
  %59 = load ptr, ptr %3, align 8
  call void @llvm.lifetime.end.p0(i64 8, ptr %3) #9
  ret ptr %59
}

; Function Attrs: nounwind uwtable
define dso_local ptr @aclmerge(ptr noundef %0, ptr noundef %1, i32 noundef %2) #0 {
  %4 = alloca ptr, align 8
  %5 = alloca ptr, align 8
  %6 = alloca ptr, align 8
  %7 = alloca i32, align 4
  %8 = alloca ptr, align 8
  %9 = alloca ptr, align 8
  %10 = alloca i32, align 4
  %11 = alloca i32, align 4
  %12 = alloca i32, align 4
  %13 = alloca ptr, align 8
  store ptr %0, ptr %5, align 8
  store ptr %1, ptr %6, align 8
  store i32 %2, ptr %7, align 4
  call void @llvm.lifetime.start.p0(i64 8, ptr %8) #9
  call void @llvm.lifetime.start.p0(i64 8, ptr %9) #9
  call void @llvm.lifetime.start.p0(i64 4, ptr %10) #9
  call void @llvm.lifetime.start.p0(i64 4, ptr %11) #9
  %14 = load ptr, ptr %5, align 8
  %15 = icmp eq ptr %14, null
  br i1 %15, label %22, label %16

16:                                               ; preds = %3
  %17 = load ptr, ptr %5, align 8
  %18 = getelementptr inbounds nuw i8, ptr %17, i64 16
  %19 = getelementptr inbounds i32, ptr %18, i64 0
  %20 = load i32, ptr %19, align 4
  %21 = icmp eq i32 %20, 0
  br i1 %21, label %22, label %35

22:                                               ; preds = %16, %3
  %23 = load ptr, ptr %6, align 8
  %24 = icmp eq ptr %23, null
  br i1 %24, label %31, label %25

25:                                               ; preds = %22
  %26 = load ptr, ptr %6, align 8
  %27 = getelementptr inbounds nuw i8, ptr %26, i64 16
  %28 = getelementptr inbounds i32, ptr %27, i64 0
  %29 = load i32, ptr %28, align 4
  %30 = icmp eq i32 %29, 0
  br i1 %30, label %31, label %32

31:                                               ; preds = %25, %22
  store ptr null, ptr %4, align 8
  store i32 1, ptr %12, align 4
  br label %95

32:                                               ; preds = %25
  %33 = load ptr, ptr %6, align 8
  %34 = call ptr @aclcopy(ptr noundef %33)
  store ptr %34, ptr %4, align 8
  store i32 1, ptr %12, align 4
  br label %95

35:                                               ; preds = %16
  %36 = load ptr, ptr %6, align 8
  %37 = icmp eq ptr %36, null
  br i1 %37, label %44, label %38

38:                                               ; preds = %35
  %39 = load ptr, ptr %6, align 8
  %40 = getelementptr inbounds nuw i8, ptr %39, i64 16
  %41 = getelementptr inbounds i32, ptr %40, i64 0
  %42 = load i32, ptr %41, align 4
  %43 = icmp eq i32 %42, 0
  br i1 %43, label %44, label %47

44:                                               ; preds = %38, %35
  %45 = load ptr, ptr %5, align 8
  %46 = call ptr @aclcopy(ptr noundef %45)
  store ptr %46, ptr %4, align 8
  store i32 1, ptr %12, align 4
  br label %95

47:                                               ; preds = %38
  br label %48

48:                                               ; preds = %47
  %49 = load ptr, ptr %5, align 8
  %50 = call ptr @aclcopy(ptr noundef %49)
  store ptr %50, ptr %8, align 8
  %51 = load ptr, ptr %6, align 8
  %52 = load ptr, ptr %6, align 8
  %53 = getelementptr inbounds nuw %struct.ArrayType, ptr %52, i32 0, i32 2
  %54 = load i32, ptr %53, align 4
  %55 = icmp ne i32 %54, 0
  br i1 %55, label %56, label %61

56:                                               ; preds = %48
  %57 = load ptr, ptr %6, align 8
  %58 = getelementptr inbounds nuw %struct.ArrayType, ptr %57, i32 0, i32 2
  %59 = load i32, ptr %58, align 4
  %60 = sext i32 %59 to i64
  br label %70

61:                                               ; preds = %48
  %62 = load ptr, ptr %6, align 8
  %63 = getelementptr inbounds nuw %struct.ArrayType, ptr %62, i32 0, i32 1
  %64 = load i32, ptr %63, align 4
  %65 = sext i32 %64 to i64
  %66 = mul i64 8, %65
  %67 = add i64 16, %66
  %68 = add i64 %67, 7
  %69 = and i64 %68, -8
  br label %70

70:                                               ; preds = %61, %56
  %71 = phi i64 [ %60, %56 ], [ %69, %61 ]
  %72 = getelementptr inbounds nuw i8, ptr %51, i64 %71
  store ptr %72, ptr %9, align 8
  %73 = load ptr, ptr %6, align 8
  %74 = getelementptr inbounds nuw i8, ptr %73, i64 16
  %75 = getelementptr inbounds i32, ptr %74, i64 0
  %76 = load i32, ptr %75, align 4
  store i32 %76, ptr %11, align 4
  store i32 0, ptr %10, align 4
  br label %77

77:                                               ; preds = %88, %70
  %78 = load i32, ptr %10, align 4
  %79 = load i32, ptr %11, align 4
  %80 = icmp slt i32 %78, %79
  br i1 %80, label %81, label %93

81:                                               ; preds = %77
  call void @llvm.lifetime.start.p0(i64 8, ptr %13) #9
  %82 = load ptr, ptr %8, align 8
  %83 = load ptr, ptr %9, align 8
  %84 = load i32, ptr %7, align 4
  %85 = call ptr @aclupdate(ptr noundef %82, ptr noundef %83, i32 noundef 1, i32 noundef %84, i32 noundef 0)
  store ptr %85, ptr %13, align 8
  %86 = load ptr, ptr %8, align 8
  call void @pfree(ptr noundef %86)
  %87 = load ptr, ptr %13, align 8
  store ptr %87, ptr %8, align 8
  call void @llvm.lifetime.end.p0(i64 8, ptr %13) #9
  br label %88

88:                                               ; preds = %81
  %89 = load i32, ptr %10, align 4
  %90 = add i32 %89, 1
  store i32 %90, ptr %10, align 4
  %91 = load ptr, ptr %9, align 8
  %92 = getelementptr inbounds nuw %struct.AclItem, ptr %91, i32 1
  store ptr %92, ptr %9, align 8
  br label %77, !llvm.loop !4

93:                                               ; preds = %77
  %94 = load ptr, ptr %8, align 8
  store ptr %94, ptr %4, align 8
  store i32 1, ptr %12, align 4
  br label %95

95:                                               ; preds = %93, %44, %32, %31
  call void @llvm.lifetime.end.p0(i64 4, ptr %11) #9
  call void @llvm.lifetime.end.p0(i64 4, ptr %10) #9
  call void @llvm.lifetime.end.p0(i64 8, ptr %9) #9
  call void @llvm.lifetime.end.p0(i64 8, ptr %8) #9
  %96 = load ptr, ptr %4, align 8
  ret ptr %96
}