; Function Attrs: nounwind uwtable
define dso_local ptr @aclmerge(ptr noundef readonly captures(address_is_null) %0, ptr noundef readonly captures(address_is_null) %1, i32 noundef %2) local_unnamed_addr #0 {
  %4 = icmp eq ptr %0, null
  br i1 %4, label %9, label %5

5:                                                ; preds = %3
  %6 = getelementptr inbounds nuw i8, ptr %0, i64 16
  %7 = load i32, ptr %6, align 4
  %8 = icmp eq i32 %7, 0
  br i1 %8, label %9, label %49

9:                                                ; preds = %5, %3
  %10 = icmp eq ptr %1, null
  br i1 %10, label %.loopexit, label %11

11:                                               ; preds = %9
  %12 = getelementptr inbounds nuw i8, ptr %1, i64 16
  %13 = load i32, ptr %12, align 4
  %14 = icmp eq i32 %13, 0
  br i1 %14, label %.loopexit, label %15

15:                                               ; preds = %11
  %16 = icmp slt i32 %13, 0
  br i1 %16, label %17, label %20

17:                                               ; preds = %15
  %18 = tail call zeroext i1 @errstart_cold(i32 noundef 21, ptr noundef null) #15
  tail call void @llvm.assume(i1 %18)
  %19 = tail call i32 (ptr, ...) @errmsg_internal(ptr noundef nonnull @.str.37, i32 noundef %13) #14
  tail call void @errfinish(ptr noundef nonnull @.str.1, i32 noundef 416, ptr noundef nonnull @__func__.allocacl) #14
  unreachable

20:                                               ; preds = %15
  %21 = zext nneg i32 %13 to i64
  %22 = shl nuw nsw i64 %21, 4
  %23 = add nuw nsw i64 %22, 24
  %24 = tail call ptr @palloc0(i64 noundef %23) #14
  %25 = trunc i64 %23 to i32
  %26 = shl i32 %25, 2
  store i32 %26, ptr %24, align 4
  %27 = getelementptr inbounds nuw i8, ptr %24, i64 4
  store i32 1, ptr %27, align 4
  %28 = getelementptr inbounds nuw i8, ptr %24, i64 8
  store i32 0, ptr %28, align 4
  %29 = getelementptr inbounds nuw i8, ptr %24, i64 12
  store i32 1033, ptr %29, align 4
  %30 = getelementptr inbounds nuw i8, ptr %24, i64 16
  %31 = getelementptr inbounds nuw i8, ptr %24, i64 20
  store i32 1, ptr %31, align 4
  store i32 %13, ptr %30, align 4
  %32 = getelementptr inbounds nuw i8, ptr %1, i64 8
  %33 = load i32, ptr %32, align 4
  %.not12.i = icmp eq i32 %33, 0
  br i1 %.not12.i, label %36, label %34

34:                                               ; preds = %20
  %35 = sext i32 %33 to i64
  br label %aclcopy.exit

36:                                               ; preds = %20
  %37 = getelementptr inbounds nuw i8, ptr %1, i64 4
  %38 = load i32, ptr %37, align 4
  %39 = sext i32 %38 to i64
  %40 = shl nsw i64 %39, 3
  %41 = add nsw i64 %40, 23
  %42 = and i64 %41, -8
  br label %aclcopy.exit

aclcopy.exit:                                     ; preds = %34, %36
  %43 = phi i64 [ %35, %34 ], [ %42, %36 ]
  %44 = getelementptr inbounds nuw i8, ptr %24, i64 24
  %45 = getelementptr inbounds nuw i8, ptr %1, i64 %43
  %46 = load i32, ptr %12, align 4
  %47 = sext i32 %46 to i64
  %48 = shl nsw i64 %47, 4
  tail call void @llvm.memcpy.p0.p0.i64(ptr nonnull align 8 %44, ptr nonnull readonly align 8 %45, i64 %48, i1 false)
  br label %.loopexit

49:                                               ; preds = %5
  %50 = icmp eq ptr %1, null
  br i1 %50, label %55, label %51

51:                                               ; preds = %49
  %52 = getelementptr inbounds nuw i8, ptr %1, i64 16
  %53 = load i32, ptr %52, align 4
  %54 = icmp eq i32 %53, 0
  br i1 %54, label %55, label %89

55:                                               ; preds = %51, %49
  %56 = icmp slt i32 %7, 0
  br i1 %56, label %57, label %60

57:                                               ; preds = %55
  %58 = tail call zeroext i1 @errstart_cold(i32 noundef 21, ptr noundef null) #15
  tail call void @llvm.assume(i1 %58)
  %59 = tail call i32 (ptr, ...) @errmsg_internal(ptr noundef nonnull @.str.37, i32 noundef %7) #14
  tail call void @errfinish(ptr noundef nonnull @.str.1, i32 noundef 416, ptr noundef nonnull @__func__.allocacl) #14
  unreachable

60:                                               ; preds = %55
  %61 = zext nneg i32 %7 to i64
  %62 = shl nuw nsw i64 %61, 4
  %63 = add nuw nsw i64 %62, 24
  %64 = tail call ptr @palloc0(i64 noundef %63) #14
  %65 = trunc i64 %63 to i32
  %66 = shl i32 %65, 2
  store i32 %66, ptr %64, align 4
  %67 = getelementptr inbounds nuw i8, ptr %64, i64 4
  store i32 1, ptr %67, align 4
  %68 = getelementptr inbounds nuw i8, ptr %64, i64 8
  store i32 0, ptr %68, align 4
  %69 = getelementptr inbounds nuw i8, ptr %64, i64 12
  store i32 1033, ptr %69, align 4
  %70 = getelementptr inbounds nuw i8, ptr %64, i64 16
  %71 = getelementptr inbounds nuw i8, ptr %64, i64 20
  store i32 1, ptr %71, align 4
  store i32 %7, ptr %70, align 4
  %72 = getelementptr inbounds nuw i8, ptr %0, i64 8
  %73 = load i32, ptr %72, align 4
  %.not12.i30 = icmp eq i32 %73, 0
  br i1 %.not12.i30, label %76, label %74

74:                                               ; preds = %60
  %75 = sext i32 %73 to i64
  br label %aclcopy.exit31

76:                                               ; preds = %60
  %77 = getelementptr inbounds nuw i8, ptr %0, i64 4
  %78 = load i32, ptr %77, align 4
  %79 = sext i32 %78 to i64
  %80 = shl nsw i64 %79, 3
  %81 = add nsw i64 %80, 23
  %82 = and i64 %81, -8
  br label %aclcopy.exit31

aclcopy.exit31:                                   ; preds = %74, %76
  %83 = phi i64 [ %75, %74 ], [ %82, %76 ]
  %84 = getelementptr inbounds nuw i8, ptr %64, i64 24
  %85 = getelementptr inbounds nuw i8, ptr %0, i64 %83
  %86 = load i32, ptr %6, align 4
  %87 = sext i32 %86 to i64
  %88 = shl nsw i64 %87, 4
  tail call void @llvm.memcpy.p0.p0.i64(ptr nonnull align 8 %84, ptr nonnull readonly align 8 %85, i64 %88, i1 false)
  br label %.loopexit

89:                                               ; preds = %51
  %90 = icmp slt i32 %7, 0
  br i1 %90, label %91, label %94

91:                                               ; preds = %89
  %92 = tail call zeroext i1 @errstart_cold(i32 noundef 21, ptr noundef null) #15
  tail call void @llvm.assume(i1 %92)
  %93 = tail call i32 (ptr, ...) @errmsg_internal(ptr noundef nonnull @.str.37, i32 noundef %7) #14
  tail call void @errfinish(ptr noundef nonnull @.str.1, i32 noundef 416, ptr noundef nonnull @__func__.allocacl) #14
  unreachable

94:                                               ; preds = %89
  %95 = zext nneg i32 %7 to i64
  %96 = shl nuw nsw i64 %95, 4
  %97 = add nuw nsw i64 %96, 24
  %98 = tail call ptr @palloc0(i64 noundef %97) #14
  %99 = trunc i64 %97 to i32
  %100 = shl i32 %99, 2
  store i32 %100, ptr %98, align 4
  %101 = getelementptr inbounds nuw i8, ptr %98, i64 4
  store i32 1, ptr %101, align 4
  %102 = getelementptr inbounds nuw i8, ptr %98, i64 8
  store i32 0, ptr %102, align 4
  %103 = getelementptr inbounds nuw i8, ptr %98, i64 12
  store i32 1033, ptr %103, align 4
  %104 = getelementptr inbounds nuw i8, ptr %98, i64 16
  %105 = getelementptr inbounds nuw i8, ptr %98, i64 20
  store i32 1, ptr %105, align 4
  store i32 %7, ptr %104, align 4
  %106 = getelementptr inbounds nuw i8, ptr %0, i64 8
  %107 = load i32, ptr %106, align 4
  %.not12.i32 = icmp eq i32 %107, 0
  br i1 %.not12.i32, label %110, label %108

108:                                              ; preds = %94
  %109 = sext i32 %107 to i64
  br label %aclcopy.exit33

110:                                              ; preds = %94
  %111 = getelementptr inbounds nuw i8, ptr %0, i64 4
  %112 = load i32, ptr %111, align 4
  %113 = sext i32 %112 to i64
  %114 = shl nsw i64 %113, 3
  %115 = add nsw i64 %114, 23
  %116 = and i64 %115, -8
  br label %aclcopy.exit33

aclcopy.exit33:                                   ; preds = %108, %110
  %117 = phi i64 [ %109, %108 ], [ %116, %110 ]
  %118 = getelementptr inbounds nuw i8, ptr %98, i64 24
  %119 = getelementptr inbounds nuw i8, ptr %0, i64 %117
  %120 = load i32, ptr %6, align 4
  %121 = sext i32 %120 to i64
  %122 = shl nsw i64 %121, 4
  tail call void @llvm.memcpy.p0.p0.i64(ptr nonnull align 8 %118, ptr nonnull readonly align 8 %119, i64 %122, i1 false)
  %123 = getelementptr inbounds nuw i8, ptr %1, i64 8
  %124 = load i32, ptr %123, align 4
  %.not = icmp eq i32 %124, 0
  br i1 %.not, label %127, label %125

125:                                              ; preds = %aclcopy.exit33
  %126 = sext i32 %124 to i64
  br label %134

127:                                              ; preds = %aclcopy.exit33
  %128 = getelementptr inbounds nuw i8, ptr %1, i64 4
  %129 = load i32, ptr %128, align 4
  %130 = sext i32 %129 to i64
  %131 = shl nsw i64 %130, 3
  %132 = add nsw i64 %131, 23
  %133 = and i64 %132, -8
  br label %134

134:                                              ; preds = %127, %125
  %135 = phi i64 [ %126, %125 ], [ %133, %127 ]
  %136 = load i32, ptr %52, align 4
  %137 = icmp sgt i32 %136, 0
  br i1 %137, label %.lr.ph.preheader, label %.loopexit

.lr.ph.preheader:                                 ; preds = %134
  %138 = getelementptr inbounds nuw i8, ptr %1, i64 %135
  br label %.lr.ph

.lr.ph:                                           ; preds = %.lr.ph.preheader, %.lr.ph
  %.02436 = phi ptr [ %139, %.lr.ph ], [ %98, %.lr.ph.preheader ]
  %.02535 = phi i32 [ %140, %.lr.ph ], [ 0, %.lr.ph.preheader ]
  %.02634 = phi ptr [ %141, %.lr.ph ], [ %138, %.lr.ph.preheader ]
  %139 = tail call ptr @aclupdate(ptr noundef %.02436, ptr noundef nonnull %.02634, i32 noundef 1, i32 noundef %2, i32 noundef 0)
  tail call void @pfree(ptr noundef %.02436) #14
  %140 = add nuw nsw i32 %.02535, 1
  %141 = getelementptr inbounds nuw i8, ptr %.02634, i64 16
  %exitcond.not = icmp eq i32 %140, %136
  br i1 %exitcond.not, label %.loopexit, label %.lr.ph, !llvm.loop !4

.loopexit:                                        ; preds = %.lr.ph, %134, %9, %11, %aclcopy.exit31, %aclcopy.exit
  %.0 = phi ptr [ %24, %aclcopy.exit ], [ %64, %aclcopy.exit31 ], [ null, %11 ], [ null, %9 ], [ %98, %134 ], [ %139, %.lr.ph ]
  ret ptr %.0
}